target datalayout = "e-m:e-p270:32:32-p271:32:32-p272:64:64-i64:64-i128:128-f80:128-n8:16:32:64-S128"
target triple = "x86_64-pc-linux-gnu"

%"struct.ceres::internal::Block" = type { i32, i32 }
%"class.ceres::internal::CompressedRowSparseMatrix" = type { %"class.ceres::internal::SparseMatrix", i32, i32, %"class.std::vector.6", %"class.std::vector.6", %"class.std::vector.11", i32, %"class.std::vector.16", %"class.std::vector.16" }
%"class.ceres::internal::SparseMatrix" = type { %"class.ceres::internal::LinearOperator" }
%"class.ceres::internal::LinearOperator" = type { ptr }
%"class.std::vector.6" = type { %"struct.std::_Vector_base.7" }
%"struct.std::_Vector_base.7" = type { %"struct.std::_Vector_base<int, std::allocator<int>>::_Vector_impl" }
%"struct.std::_Vector_base<int, std::allocator<int>>::_Vector_impl" = type { %"struct.std::_Vector_base<int, std::allocator<int>>::_Vector_impl_data" }
%"struct.std::_Vector_base<int, std::allocator<int>>::_Vector_impl_data" = type { ptr, ptr, ptr }
%"class.std::vector.11" = type { %"struct.std::_Vector_base.12" }
%"struct.std::_Vector_base.12" = type { %"struct.std::_Vector_base<double, std::allocator<double>>::_Vector_impl" }
%"struct.std::_Vector_base<double, std::allocator<double>>::_Vector_impl" = type { %"struct.std::_Vector_base<double, std::allocator<double>>::_Vector_impl_data" }
%"struct.std::_Vector_base<double, std::allocator<double>>::_Vector_impl_data" = type { ptr, ptr, ptr }
%"class.std::vector.16" = type { %"struct.std::_Vector_base.17" }
%"struct.std::_Vector_base.17" = type { %"struct.std::_Vector_base<ceres::internal::Block, std::allocator<ceres::internal::Block>>::_Vector_impl" }
%"struct.std::_Vector_base<ceres::internal::Block, std::allocator<ceres::internal::Block>>::_Vector_impl" = type { %"struct.std::_Vector_base<ceres::internal::Block, std::allocator<ceres::internal::Block>>::_Vector_impl_data" }
%"struct.std::_Vector_base<ceres::internal::Block, std::allocator<ceres::internal::Block>>::_Vector_impl_data" = type { ptr, ptr, ptr }
%"struct.std::_Vector_base" = type { %"struct.std::_Vector_base<ceres::internal::ParameterBlock *, std::allocator<ceres::internal::ParameterBlock *>>::_Vector_impl" }
%"struct.std::_Vector_base<ceres::internal::ParameterBlock *, std::allocator<ceres::internal::ParameterBlock *>>::_Vector_impl" = type { %"struct.std::_Vector_base<ceres::internal::ParameterBlock *, std::allocator<ceres::internal::ParameterBlock *>>::_Vector_impl_data" }
%"struct.std::_Vector_base<ceres::internal::ParameterBlock *, std::allocator<ceres::internal::ParameterBlock *>>::_Vector_impl_data" = type { ptr, ptr, ptr }
%"class.ceres::internal::ParameterBlock" = type { ptr, i32, i8, ptr, ptr, %"class.std::unique_ptr", i32, i32, i32, %"class.std::unique_ptr.23", %"class.std::unique_ptr", %"class.std::unique_ptr" }
%"class.std::unique_ptr.23" = type { %"struct.std::__uniq_ptr_data.24" }
%"struct.std::__uniq_ptr_data.24" = type { %"class.std::__uniq_ptr_impl.25" }
%"class.std::__uniq_ptr_impl.25" = type { %"class.std::tuple.26" }
%"class.std::tuple.26" = type { %"struct.std::_Tuple_impl.27" }
%"struct.std::_Tuple_impl.27" = type { %"struct.std::_Head_base.30" }
%"struct.std::_Head_base.30" = type { ptr }
%"class.std::unique_ptr" = type { %"struct.std::__uniq_ptr_data" }
%"struct.std::__uniq_ptr_data" = type { %"class.std::__uniq_ptr_impl" }
%"class.std::__uniq_ptr_impl" = type { %"class.std::tuple" }
%"class.std::tuple" = type { %"struct.std::_Tuple_impl" }
%"struct.std::_Tuple_impl" = type { %"struct.std::_Head_base.22" }
%"struct.std::_Head_base.22" = type { ptr }
%"struct.std::_Vector_base.2" = type { %"struct.std::_Vector_base<ceres::internal::ResidualBlock *, std::allocator<ceres::internal::ResidualBlock *>>::_Vector_impl" }
%"struct.std::_Vector_base<ceres::internal::ResidualBlock *, std::allocator<ceres::internal::ResidualBlock *>>::_Vector_impl" = type { %"struct.std::_Vector_base<ceres::internal::ResidualBlock *, std::allocator<ceres::internal::ResidualBlock *>>::_Vector_impl_data" }
%"struct.std::_Vector_base<ceres::internal::ResidualBlock *, std::allocator<ceres::internal::ResidualBlock *>>::_Vector_impl_data" = type { ptr, ptr, ptr }
%"class.ceres::internal::ResidualBlock" = type <{ ptr, ptr, %"class.std::unique_ptr.31", i32, [4 x i8] }>
%"class.std::unique_ptr.31" = type { %"struct.std::__uniq_ptr_data.32" }
%"struct.std::__uniq_ptr_data.32" = type { %"class.std::__uniq_ptr_impl.33" }
%"class.std::__uniq_ptr_impl.33" = type { %"class.std::tuple.34" }
%"class.std::tuple.34" = type { %"struct.std::_Tuple_impl.35" }
%"struct.std::_Tuple_impl.35" = type { %"struct.std::_Head_base.38" }
%"struct.std::_Head_base.38" = type { ptr }
%"class.ceres::CostFunction" = type <{ ptr, %"class.std::vector.6", i32, [4 x i8] }>

; Function Attrs: mustprogress nounwind uwtable
define linkonce_odr hidden noundef i32 @_ZNK5ceres12CostFunction13num_residualsEv(ptr noundef nonnull align 8 dereferenceable(36) %0) #1 comdat align 2 {
  %2 = alloca ptr, align 8
  store ptr %0, ptr %2, align 8, !tbaa !150
  %3 = load ptr, ptr %2, align 8
  %4 = getelementptr inbounds nuw %"class.ceres::CostFunction", ptr %3, i32 0, i32 2
  %5 = load i32, ptr %4, align 8, !tbaa !151
  ret i32 %5
}

; Function Attrs: mustprogress uwtable
define linkonce_odr hidden noundef i32 @_ZNK5ceres8internal13ResidualBlock12NumResidualsEv(ptr noundef nonnull align 8 dereferenceable(28) %0) #3 comdat align 2 {
  %2 = alloca ptr, align 8
  store ptr %0, ptr %2, align 8, !tbaa !33
  %3 = load ptr, ptr %2, align 8
  %4 = getelementptr inbounds nuw %"class.ceres::internal::ResidualBlock", ptr %3, i32 0, i32 0
  %5 = load ptr, ptr %4, align 8, !tbaa !70
  %6 = call noundef i32 @_ZNK5ceres12CostFunction13num_residualsEv(ptr noundef nonnull align 8 dereferenceable(36) %5)
  ret i32 %6
}

; Function Attrs: mustprogress nounwind uwtable
define linkonce_odr hidden noundef nonnull align 8 dereferenceable(8) ptr @_ZNKSt6vectorIPN5ceres8internal13ResidualBlockESaIS3_EEixEm(ptr noundef nonnull align 8 dereferenceable(24) %0, i64 noundef %1) #1 comdat align 2 {
  %3 = alloca ptr, align 8
  %4 = alloca i64, align 8
  store ptr %0, ptr %3, align 8, !tbaa !31
  store i64 %1, ptr %4, align 8, !tbaa !36
  %5 = load ptr, ptr %3, align 8
  %6 = getelementptr inbounds nuw %"struct.std::_Vector_base.2", ptr %5, i32 0, i32 0
  %7 = getelementptr inbounds nuw %"struct.std::_Vector_base<ceres::internal::ResidualBlock *, std::allocator<ceres::internal::ResidualBlock *>>::_Vector_impl_data", ptr %6, i32 0, i32 0
  %8 = load ptr, ptr %7, align 8, !tbaa !69
  %9 = load i64, ptr %4, align 8, !tbaa !36
  %10 = getelementptr inbounds nuw ptr, ptr %8, i64 %9
  ret ptr %10
}

; Function Attrs: mustprogress nounwind uwtable
define linkonce_odr hidden noundef i64 @_ZNKSt6vectorIPN5ceres8internal13ResidualBlockESaIS3_EE4sizeEv(ptr noundef nonnull align 8 dereferenceable(24) %0) #1 comdat align 2 {
  %2 = alloca ptr, align 8
  store ptr %0, ptr %2, align 8, !tbaa !31
  %3 = load ptr, ptr %2, align 8
  %4 = getelementptr inbounds nuw %"struct.std::_Vector_base.2", ptr %3, i32 0, i32 0
  %5 = getelementptr inbounds nuw %"struct.std::_Vector_base<ceres::internal::ResidualBlock *, std::allocator<ceres::internal::ResidualBlock *>>::_Vector_impl_data", ptr %4, i32 0, i32 1
  %6 = load ptr, ptr %5, align 8, !tbaa !66
  %7 = getelementptr inbounds nuw %"struct.std::_Vector_base.2", ptr %3, i32 0, i32 0
  %8 = getelementptr inbounds nuw %"struct.std::_Vector_base<ceres::internal::ResidualBlock *, std::allocator<ceres::internal::ResidualBlock *>>::_Vector_impl_data", ptr %7, i32 0, i32 0
  %9 = load ptr, ptr %8, align 8, !tbaa !69
  %10 = ptrtoint ptr %6 to i64
  %11 = ptrtoint ptr %9 to i64
  %12 = sub i64 %10, %11
  %13 = sdiv exact i64 %12, 8
  ret i64 %13
}

; Function Attrs: mustprogress nounwind uwtable
define linkonce_odr hidden noundef ptr @_ZN5ceres8internal25CompressedRowSparseMatrix18mutable_row_blocksEv(ptr noundef nonnull align 8 dereferenceable(144) %0) #1 comdat align 2 {
  %2 = alloca ptr, align 8
  store ptr %0, ptr %2, align 8, !tbaa !16
  %3 = load ptr, ptr %2, align 8
  %4 = getelementptr inbounds nuw %"class.ceres::internal::CompressedRowSparseMatrix", ptr %3, i32 0, i32 7
  ret ptr %4
}

; Function Attrs: mustprogress nounwind uwtable
define linkonce_odr hidden noundef nonnull align 4 dereferenceable(8) ptr @_ZNSt6vectorIN5ceres8internal5BlockESaIS2_EEixEm(ptr noundef nonnull align 8 dereferenceable(24) %0, i64 noundef %1) #1 comdat align 2 {
  %3 = alloca ptr, align 8
  %4 = alloca i64, align 8
  store ptr %0, ptr %3, align 8, !tbaa !20
  store i64 %1, ptr %4, align 8, !tbaa !36
  %5 = load ptr, ptr %3, align 8
  %6 = getelementptr inbounds nuw %"struct.std::_Vector_base.17", ptr %5, i32 0, i32 0
  %7 = getelementptr inbounds nuw %"struct.std::_Vector_base<ceres::internal::Block, std::allocator<ceres::internal::Block>>::_Vector_impl_data", ptr %6, i32 0, i32 0
  %8 = load ptr, ptr %7, align 8, !tbaa !38
  %9 = load i64, ptr %4, align 8, !tbaa !36
  %10 = getelementptr inbounds nuw %"struct.ceres::internal::Block", ptr %8, i64 %9
  ret ptr %10
}

; Function Attrs: mustprogress uwtable
define linkonce_odr hidden noundef i32 @_ZNK5ceres8internal14ParameterBlock11TangentSizeEv(ptr noundef nonnull align 8 dereferenceable(80) %0) #3 comdat align 2 {
  %2 = alloca ptr, align 8
  store ptr %0, ptr %2, align 8, !tbaa !24
  %3 = load ptr, ptr %2, align 8
  %4 = getelementptr inbounds nuw %"class.ceres::internal::ParameterBlock", ptr %3, i32 0, i32 3
  %5 = load ptr, ptr %4, align 8, !tbaa !45
  %6 = icmp eq ptr %5, null
  br i1 %6, label %7, label %10

7:                                                ; preds = %1
  %8 = getelementptr inbounds nuw %"class.ceres::internal::ParameterBlock", ptr %3, i32 0, i32 1
  %9 = load i32, ptr %8, align 8, !tbaa !63
  br label %17

10:                                               ; preds = %1
  %11 = getelementptr inbounds nuw %"class.ceres::internal::ParameterBlock", ptr %3, i32 0, i32 3
  %12 = load ptr, ptr %11, align 8, !tbaa !45
  %13 = load ptr, ptr %12, align 8, !tbaa !64
  %14 = getelementptr inbounds ptr, ptr %13, i64 3
  %15 = load ptr, ptr %14, align 8
  %16 = call noundef i32 %15(ptr noundef nonnull align 8 dereferenceable(8) %12)
  br label %17

17:                                               ; preds = %10, %7
  %18 = phi i32 [ %9, %7 ], [ %16, %10 ]
  ret i32 %18
}

; Function Attrs: mustprogress nounwind uwtable
define linkonce_odr hidden noundef nonnull align 8 dereferenceable(8) ptr @_ZNKSt6vectorIPN5ceres8internal14ParameterBlockESaIS3_EEixEm(ptr noundef nonnull align 8 dereferenceable(24) %0, i64 noundef %1) #1 comdat align 2 {
  %3 = alloca ptr, align 8
  %4 = alloca i64, align 8
  store ptr %0, ptr %3, align 8, !tbaa !18
  store i64 %1, ptr %4, align 8, !tbaa !36
  %5 = load ptr, ptr %3, align 8
  %6 = getelementptr inbounds nuw %"struct.std::_Vector_base", ptr %5, i32 0, i32 0
  %7 = getelementptr inbounds nuw %"struct.std::_Vector_base<ceres::internal::ParameterBlock *, std::allocator<ceres::internal::ParameterBlock *>>::_Vector_impl_data", ptr %6, i32 0, i32 0
  %8 = load ptr, ptr %7, align 8, !tbaa !44
  %9 = load i64, ptr %4, align 8, !tbaa !36
  %10 = getelementptr inbounds nuw ptr, ptr %8, i64 %9
  ret ptr %10
}

; Function Attrs: mustprogress nounwind uwtable
define linkonce_odr hidden noundef i64 @_ZNKSt6vectorIPN5ceres8internal14ParameterBlockESaIS3_EE4sizeEv(ptr noundef nonnull align 8 dereferenceable(24) %0) #1 comdat align 2 {
  %2 = alloca ptr, align 8
  store ptr %0, ptr %2, align 8, !tbaa !18
  %3 = load ptr, ptr %2, align 8
  %4 = getelementptr inbounds nuw %"struct.std::_Vector_base", ptr %3, i32 0, i32 0
  %5 = getelementptr inbounds nuw %"struct.std::_Vector_base<ceres::internal::ParameterBlock *, std::allocator<ceres::internal::ParameterBlock *>>::_Vector_impl_data", ptr %4, i32 0, i32 1
  %6 = load ptr, ptr %5, align 8, !tbaa !41
  %7 = getelementptr inbounds nuw %"struct.std::_Vector_base", ptr %3, i32 0, i32 0
  %8 = getelementptr inbounds nuw %"struct.std::_Vector_base<ceres::internal::ParameterBlock *, std::allocator<ceres::internal::ParameterBlock *>>::_Vector_impl_data", ptr %7, i32 0, i32 0
  %9 = load ptr, ptr %8, align 8, !tbaa !44
  %10 = ptrtoint ptr %6 to i64
  %11 = ptrtoint ptr %9 to i64
  %12 = sub i64 %10, %11
  %13 = sdiv exact i64 %12, 8
  ret i64 %13
}

; Function Attrs: mustprogress nounwind uwtable
define linkonce_odr hidden noundef ptr @_ZN5ceres8internal25CompressedRowSparseMatrix18mutable_col_blocksEv(ptr noundef nonnull align 8 dereferenceable(144) %0) #1 comdat align 2 {
  %2 = alloca ptr, align 8
  store ptr %0, ptr %2, align 8, !tbaa !16
  %3 = load ptr, ptr %2, align 8
  %4 = getelementptr inbounds nuw %"class.ceres::internal::CompressedRowSparseMatrix", ptr %3, i32 0, i32 8
  ret ptr %4
}

; Function Attrs: mustprogress uwtable
define hidden void @_ZN5ceres8internal27CompressedRowJacobianWriter40PopulateJacobianRowAndColumnBlockVectorsEPKNS0_7ProgramEPNS0_25CompressedRowSparseMatrixE(ptr noundef %0, ptr noundef %1) #3 align 2 {
  %3 = alloca ptr, align 8
  %4 = alloca ptr, align 8
  %5 = alloca ptr, align 8
  %6 = alloca ptr, align 8
  %7 = alloca i32, align 4
  %8 = alloca i32, align 4
  %9 = alloca ptr, align 8
  %10 = alloca ptr, align 8
  %11 = alloca i32, align 4
  %12 = alloca i32, align 4
  store ptr %0, ptr %3, align 8, !tbaa !14
  store ptr %1, ptr %4, align 8, !tbaa !16
  call void @llvm.lifetime.start.p0(i64 8, ptr %5) #6
  %13 = load ptr, ptr %3, align 8, !tbaa !14
  %14 = call noundef nonnull align 8 dereferenceable(24) ptr @_ZNK5ceres8internal7Program16parameter_blocksEv(ptr noundef nonnull align 8 dereferenceable(56) %13)
  store ptr %14, ptr %5, align 8, !tbaa !18
  call void @llvm.lifetime.start.p0(i64 8, ptr %6) #6
  %15 = load ptr, ptr %4, align 8, !tbaa !16
  %16 = call noundef ptr @_ZN5ceres8internal25CompressedRowSparseMatrix18mutable_col_blocksEv(ptr noundef nonnull align 8 dereferenceable(144) %15)
  store ptr %16, ptr %6, align 8, !tbaa !20
  %17 = load ptr, ptr %6, align 8, !tbaa !20
  %18 = load ptr, ptr %5, align 8, !tbaa !18
  %19 = call noundef i64 @_ZNKSt6vectorIPN5ceres8internal14ParameterBlockESaIS3_EE4sizeEv(ptr noundef nonnull align 8 dereferenceable(24) %18) #6
  call void @_ZNSt6vectorIN5ceres8internal5BlockESaIS2_EE6resizeEm(ptr noundef nonnull align 8 dereferenceable(24) %17, i64 noundef %19)
  call void @llvm.lifetime.start.p0(i64 4, ptr %7) #6
  store i32 0, ptr %7, align 4, !tbaa !22
  call void @llvm.lifetime.start.p0(i64 4, ptr %8) #6
  store i32 0, ptr %8, align 4, !tbaa !22
  br label %20

20:                                               ; preds = %53, %2
  %21 = load i32, ptr %8, align 4, !tbaa !22
  %22 = sext i32 %21 to i64
  %23 = load ptr, ptr %5, align 8, !tbaa !18
  %24 = call noundef i64 @_ZNKSt6vectorIPN5ceres8internal14ParameterBlockESaIS3_EE4sizeEv(ptr noundef nonnull align 8 dereferenceable(24) %23) #6
  %25 = icmp ult i64 %22, %24
  br i1 %25, label %27, label %26

26:                                               ; preds = %20
  call void @llvm.lifetime.end.p0(i64 4, ptr %8) #6
  br label %56

27:                                               ; preds = %20
  %28 = load ptr, ptr %5, align 8, !tbaa !18
  %29 = load i32, ptr %8, align 4, !tbaa !22
  %30 = sext i32 %29 to i64
  %31 = call noundef nonnull align 8 dereferenceable(8) ptr @_ZNKSt6vectorIPN5ceres8internal14ParameterBlockESaIS3_EEixEm(ptr noundef nonnull align 8 dereferenceable(24) %28, i64 noundef %30) #6
  %32 = load ptr, ptr %31, align 8, !tbaa !24
  %33 = call noundef i32 @_ZNK5ceres8internal14ParameterBlock11TangentSizeEv(ptr noundef nonnull align 8 dereferenceable(80) %32)
  %34 = load ptr, ptr %6, align 8, !tbaa !20
  %35 = load i32, ptr %8, align 4, !tbaa !22
  %36 = sext i32 %35 to i64
  %37 = call noundef nonnull align 4 dereferenceable(8) ptr @_ZNSt6vectorIN5ceres8internal5BlockESaIS2_EEixEm(ptr noundef nonnull align 8 dereferenceable(24) %34, i64 noundef %36) #6
  %38 = getelementptr inbounds nuw %"struct.ceres::internal::Block", ptr %37, i32 0, i32 0
  store i32 %33, ptr %38, align 4, !tbaa !26
  %39 = load i32, ptr %7, align 4, !tbaa !22
  %40 = load ptr, ptr %6, align 8, !tbaa !20
  %41 = load i32, ptr %8, align 4, !tbaa !22
  %42 = sext i32 %41 to i64
  %43 = call noundef nonnull align 4 dereferenceable(8) ptr @_ZNSt6vectorIN5ceres8internal5BlockESaIS2_EEixEm(ptr noundef nonnull align 8 dereferenceable(24) %40, i64 noundef %42) #6
  %44 = getelementptr inbounds nuw %"struct.ceres::internal::Block", ptr %43, i32 0, i32 1
  store i32 %39, ptr %44, align 4, !tbaa !28
  %45 = load ptr, ptr %6, align 8, !tbaa !20
  %46 = load i32, ptr %8, align 4, !tbaa !22
  %47 = sext i32 %46 to i64
  %48 = call noundef nonnull align 4 dereferenceable(8) ptr @_ZNSt6vectorIN5ceres8internal5BlockESaIS2_EEixEm(ptr noundef nonnull align 8 dereferenceable(24) %45, i64 noundef %47) #6
  %49 = getelementptr inbounds nuw %"struct.ceres::internal::Block", ptr %48, i32 0, i32 0
  %50 = load i32, ptr %49, align 4, !tbaa !26
  %51 = load i32, ptr %7, align 4, !tbaa !22
  %52 = add nsw i32 %51, %50
  store i32 %52, ptr %7, align 4, !tbaa !22
  br label %53

53:                                               ; preds = %27
  %54 = load i32, ptr %8, align 4, !tbaa !22
  %55 = add nsw i32 %54, 1
  store i32 %55, ptr %8, align 4, !tbaa !22
  br label %20, !llvm.loop !29

56:                                               ; preds = %26
  call void @llvm.lifetime.start.p0(i64 8, ptr %9) #6
  %57 = load ptr, ptr %3, align 8, !tbaa !14
  %58 = call noundef nonnull align 8 dereferenceable(24) ptr @_ZNK5ceres8internal7Program15residual_blocksEv(ptr noundef nonnull align 8 dereferenceable(56) %57)
  store ptr %58, ptr %9, align 8, !tbaa !31
  call void @llvm.lifetime.start.p0(i64 8, ptr %10) #6
  %59 = load ptr, ptr %4, align 8, !tbaa !16
  %60 = call noundef ptr @_ZN5ceres8internal25CompressedRowSparseMatrix18mutable_row_blocksEv(ptr noundef nonnull align 8 dereferenceable(144) %59)
  store ptr %60, ptr %10, align 8, !tbaa !20
  %61 = load ptr, ptr %10, align 8, !tbaa !20
  %62 = load ptr, ptr %9, align 8, !tbaa !31
  %63 = call noundef i64 @_ZNKSt6vectorIPN5ceres8internal13ResidualBlockESaIS3_EE4sizeEv(ptr noundef nonnull align 8 dereferenceable(24) %62) #6
  call void @_ZNSt6vectorIN5ceres8internal5BlockESaIS2_EE6resizeEm(ptr noundef nonnull align 8 dereferenceable(24) %61, i64 noundef %63)
  call void @llvm.lifetime.start.p0(i64 4, ptr %11) #6
  store i32 0, ptr %11, align 4, !tbaa !22
  call void @llvm.lifetime.start.p0(i64 4, ptr %12) #6
  store i32 0, ptr %12, align 4, !tbaa !22
  br label %64

64:                                               ; preds = %97, %56
  %65 = load i32, ptr %12, align 4, !tbaa !22
  %66 = sext i32 %65 to i64
  %67 = load ptr, ptr %9, align 8, !tbaa !31
  %68 = call noundef i64 @_ZNKSt6vectorIPN5ceres8internal13ResidualBlockESaIS3_EE4sizeEv(ptr noundef nonnull align 8 dereferenceable(24) %67) #6
  %69 = icmp ult i64 %66, %68
  br i1 %69, label %71, label %70

70:                                               ; preds = %64
  call void @llvm.lifetime.end.p0(i64 4, ptr %12) #6
  br label %100

71:                                               ; preds = %64
  %72 = load ptr, ptr %9, align 8, !tbaa !31
  %73 = load i32, ptr %12, align 4, !tbaa !22
  %74 = sext i32 %73 to i64
  %75 = call noundef nonnull align 8 dereferenceable(8) ptr @_ZNKSt6vectorIPN5ceres8internal13ResidualBlockESaIS3_EEixEm(ptr noundef nonnull align 8 dereferenceable(24) %72, i64 noundef %74) #6
  %76 = load ptr, ptr %75, align 8, !tbaa !33
  %77 = call noundef i32 @_ZNK5ceres8internal13ResidualBlock12NumResidualsEv(ptr noundef nonnull align 8 dereferenceable(28) %76)
  %78 = load ptr, ptr %10, align 8, !tbaa !20
  %79 = load i32, ptr %12, align 4, !tbaa !22
  %80 = sext i32 %79 to i64
  %81 = call noundef nonnull align 4 dereferenceable(8) ptr @_ZNSt6vectorIN5ceres8internal5BlockESaIS2_EEixEm(ptr noundef nonnull align 8 dereferenceable(24) %78, i64 noundef %80) #6
  %82 = getelementptr inbounds nuw %"struct.ceres::internal::Block", ptr %81, i32 0, i32 0
  store i32 %77, ptr %82, align 4, !tbaa !26
  %83 = load i32, ptr %11, align 4, !tbaa !22
  %84 = load ptr, ptr %10, align 8, !tbaa !20
  %85 = load i32, ptr %12, align 4, !tbaa !22
  %86 = sext i32 %85 to i64
  %87 = call noundef nonnull align 4 dereferenceable(8) ptr @_ZNSt6vectorIN5ceres8internal5BlockESaIS2_EEixEm(ptr noundef nonnull align 8 dereferenceable(24) %84, i64 noundef %86) #6
  %88 = getelementptr inbounds nuw %"struct.ceres::internal::Block", ptr %87, i32 0, i32 1
  store i32 %83, ptr %88, align 4, !tbaa !28
  %89 = load ptr, ptr %10, align 8, !tbaa !20
  %90 = load i32, ptr %12, align 4, !tbaa !22
  %91 = sext i32 %90 to i64
  %92 = call noundef nonnull align 4 dereferenceable(8) ptr @_ZNSt6vectorIN5ceres8internal5BlockESaIS2_EEixEm(ptr noundef nonnull align 8 dereferenceable(24) %89, i64 noundef %91) #6
  %93 = getelementptr inbounds nuw %"struct.ceres::internal::Block", ptr %92, i32 0, i32 0
  %94 = load i32, ptr %93, align 4, !tbaa !26
  %95 = load i32, ptr %11, align 4, !tbaa !22
  %96 = add nsw i32 %95, %94
  store i32 %96, ptr %11, align 4, !tbaa !22
  br label %97

97:                                               ; preds = %71
  %98 = load i32, ptr %12, align 4, !tbaa !22
  %99 = add nsw i32 %98, 1
  store i32 %99, ptr %12, align 4, !tbaa !22
  br label %64, !llvm.loop !35

100:                                              ; preds = %70
  call void @llvm.lifetime.end.p0(i64 4, ptr %11) #6
  call void @llvm.lifetime.end.p0(i64 8, ptr %10) #6
  call void @llvm.lifetime.end.p0(i64 8, ptr %9) #6
  call void @llvm.lifetime.end.p0(i64 4, ptr %7) #6
  call void @llvm.lifetime.end.p0(i64 8, ptr %6) #6
  call void @llvm.lifetime.end.p0(i64 8, ptr %5) #6
  ret void
}