; Function Attrs: mustprogress uwtable
define hidden void @_ZN5ceres8internal27CompressedRowJacobianWriter40PopulateJacobianRowAndColumnBlockVectorsEPKNS0_7ProgramEPNS0_25CompressedRowSparseMatrixE(ptr noundef nonnull %0, ptr noundef %1) local_unnamed_addr #4 align 2 {
  %3 = tail call noundef nonnull align 8 dereferenceable(24) ptr @_ZNK5ceres8internal7Program16parameter_blocksEv(ptr noundef nonnull align 8 dereferenceable(56) %0)
  %4 = getelementptr inbounds nuw i8, ptr %1, i64 120
  %5 = getelementptr inbounds nuw i8, ptr %3, i64 8
  %6 = load ptr, ptr %5, align 8, !tbaa !3
  %7 = load ptr, ptr %3, align 8, !tbaa !9
  %8 = ptrtoint ptr %6 to i64
  %9 = ptrtoint ptr %7 to i64
  %10 = sub i64 %8, %9
  %11 = ashr exact i64 %10, 3
  tail call void @_ZNSt6vectorIN5ceres8internal5BlockESaIS2_EE6resizeEm(ptr noundef nonnull align 8 dereferenceable(24) %4, i64 noundef %11)
  %12 = load ptr, ptr %5, align 8, !tbaa !3
  %13 = load ptr, ptr %3, align 8, !tbaa !9
  %.not = icmp eq ptr %12, %13
  br i1 %.not, label %._crit_edge, label %.lr.ph

._crit_edge:                                      ; preds = %_ZNK5ceres8internal14ParameterBlock11TangentSizeEv.exit, %2
  %14 = tail call noundef nonnull align 8 dereferenceable(24) ptr @_ZNK5ceres8internal7Program15residual_blocksEv(ptr noundef nonnull align 8 dereferenceable(56) %0)
  %15 = getelementptr inbounds nuw i8, ptr %1, i64 96
  %16 = getelementptr inbounds nuw i8, ptr %14, i64 8
  %17 = load ptr, ptr %16, align 8, !tbaa !10
  %18 = load ptr, ptr %14, align 8, !tbaa !13
  %19 = ptrtoint ptr %17 to i64
  %20 = ptrtoint ptr %18 to i64
  %21 = sub i64 %19, %20
  %22 = ashr exact i64 %21, 3
  tail call void @_ZNSt6vectorIN5ceres8internal5BlockESaIS2_EE6resizeEm(ptr noundef nonnull align 8 dereferenceable(24) %15, i64 noundef %22)
  %23 = load ptr, ptr %16, align 8, !tbaa !10
  %24 = load ptr, ptr %14, align 8, !tbaa !13
  %.not45 = icmp eq ptr %23, %24
  br i1 %.not45, label %._crit_edge44, label %.lr.ph43

.lr.ph43:                                         ; preds = %._crit_edge
  %25 = ptrtoint ptr %23 to i64
  %26 = ptrtoint ptr %24 to i64
  %27 = sub i64 %25, %26
  %28 = ashr exact i64 %27, 3
  %29 = load ptr, ptr %15, align 8, !tbaa !14
  %umax = tail call i64 @llvm.umax.i64(i64 %28, i64 1)
  br label %57

.lr.ph:                                           ; preds = %2, %_ZNK5ceres8internal14ParameterBlock11TangentSizeEv.exit
  %30 = phi ptr [ %45, %_ZNK5ceres8internal14ParameterBlock11TangentSizeEv.exit ], [ %13, %2 ]
  %31 = phi ptr [ %46, %_ZNK5ceres8internal14ParameterBlock11TangentSizeEv.exit ], [ %12, %2 ]
  %indvars.iv = phi i64 [ %indvars.iv.next, %_ZNK5ceres8internal14ParameterBlock11TangentSizeEv.exit ], [ 0, %2 ]
  %.03439 = phi i32 [ %51, %_ZNK5ceres8internal14ParameterBlock11TangentSizeEv.exit ], [ 0, %2 ]
  %32 = getelementptr inbounds nuw ptr, ptr %30, i64 %indvars.iv
  %33 = load ptr, ptr %32, align 8, !tbaa !17
  %34 = getelementptr inbounds nuw i8, ptr %33, i64 16
  %35 = load ptr, ptr %34, align 8, !tbaa !19
  %36 = icmp eq ptr %35, null
  br i1 %36, label %37, label %40

37:                                               ; preds = %.lr.ph
  %38 = getelementptr inbounds nuw i8, ptr %33, i64 8
  %39 = load i32, ptr %38, align 8, !tbaa !38
  br label %_ZNK5ceres8internal14ParameterBlock11TangentSizeEv.exit

40:                                               ; preds = %.lr.ph
  %41 = load ptr, ptr %35, align 8, !tbaa !39
  %42 = getelementptr inbounds nuw i8, ptr %41, i64 24
  %43 = load ptr, ptr %42, align 8
  %44 = tail call noundef i32 %43(ptr noundef nonnull align 8 dereferenceable(8) %35)
  %.pre = load ptr, ptr %5, align 8, !tbaa !3
  %.pre50 = load ptr, ptr %3, align 8, !tbaa !9
  br label %_ZNK5ceres8internal14ParameterBlock11TangentSizeEv.exit

_ZNK5ceres8internal14ParameterBlock11TangentSizeEv.exit: ; preds = %37, %40
  %45 = phi ptr [ %30, %37 ], [ %.pre50, %40 ]
  %46 = phi ptr [ %31, %37 ], [ %.pre, %40 ]
  %47 = phi i32 [ %39, %37 ], [ %44, %40 ]
  %48 = load ptr, ptr %4, align 8, !tbaa !14
  %49 = getelementptr inbounds nuw %"struct.ceres::internal::Block", ptr %48, i64 %indvars.iv
  store i32 %47, ptr %49, align 4, !tbaa !41
  %50 = getelementptr inbounds nuw i8, ptr %49, i64 4
  store i32 %.03439, ptr %50, align 4, !tbaa !43
  %51 = add nsw i32 %47, %.03439
  %indvars.iv.next = add nuw nsw i64 %indvars.iv, 1
  %52 = ptrtoint ptr %46 to i64
  %53 = ptrtoint ptr %45 to i64
  %54 = sub i64 %52, %53
  %55 = ashr exact i64 %54, 3
  %56 = icmp ugt i64 %55, %indvars.iv.next
  br i1 %56, label %.lr.ph, label %._crit_edge, !llvm.loop !44

._crit_edge44:                                    ; preds = %57, %._crit_edge
  ret void

57:                                               ; preds = %.lr.ph43, %57
  %indvars.iv47 = phi i64 [ 0, %.lr.ph43 ], [ %indvars.iv.next48, %57 ]
  %.03340 = phi i32 [ 0, %.lr.ph43 ], [ %65, %57 ]
  %58 = getelementptr inbounds nuw ptr, ptr %24, i64 %indvars.iv47
  %59 = load ptr, ptr %58, align 8, !tbaa !46
  %60 = load ptr, ptr %59, align 8, !tbaa !48
  %61 = getelementptr inbounds nuw i8, ptr %60, i64 32
  %62 = load i32, ptr %61, align 8, !tbaa !58
  %63 = getelementptr inbounds nuw %"struct.ceres::internal::Block", ptr %29, i64 %indvars.iv47
  store i32 %62, ptr %63, align 4, !tbaa !41
  %64 = getelementptr inbounds nuw i8, ptr %63, i64 4
  store i32 %.03340, ptr %64, align 4, !tbaa !43
  %65 = add nsw i32 %62, %.03340
  %indvars.iv.next48 = add nuw nsw i64 %indvars.iv47, 1
  %exitcond.not = icmp eq i64 %indvars.iv.next48, %umax
  br i1 %exitcond.not, label %._crit_edge44, label %57, !llvm.loop !65
}